ARM GAS  /tmp/cc8CfkBM.s 			page 1


   1              		.syntax unified
   2              		.cpu cortex-m4
   3              		.eabi_attribute 27, 1
   4              		.eabi_attribute 28, 1
   5              		.fpu fpv4-sp-d16
   6              		.eabi_attribute 20, 1
   7              		.eabi_attribute 21, 1
   8              		.eabi_attribute 23, 3
   9              		.eabi_attribute 24, 1
  10              		.eabi_attribute 25, 1
  11              		.eabi_attribute 26, 1
  12              		.eabi_attribute 30, 1
  13              		.eabi_attribute 34, 1
  14              		.eabi_attribute 18, 4
  15              		.thumb
  16              		.syntax unified
  17              		.file	"stm32l4xx_hal_msp.c"
  18              		.text
  19              	.Ltext0:
  20              		.cfi_sections	.debug_frame
  21              		.section	.text.HAL_MspInit,"ax",%progbits
  22              		.align	2
  23              		.global	HAL_MspInit
  24              		.thumb
  25              		.thumb_func
  27              	HAL_MspInit:
  28              	.LFB132:
  29              		.file 1 "Core/Src/stm32l4xx_hal_msp.c"
   1:Core/Src/stm32l4xx_hal_msp.c **** /* USER CODE BEGIN Header */
   2:Core/Src/stm32l4xx_hal_msp.c **** /**
   3:Core/Src/stm32l4xx_hal_msp.c ****   ******************************************************************************
   4:Core/Src/stm32l4xx_hal_msp.c ****   * @file         stm32l4xx_hal_msp.c
   5:Core/Src/stm32l4xx_hal_msp.c ****   * @brief        This file provides code for the MSP Initialization
   6:Core/Src/stm32l4xx_hal_msp.c ****   *               and de-Initialization codes.
   7:Core/Src/stm32l4xx_hal_msp.c ****   ******************************************************************************
   8:Core/Src/stm32l4xx_hal_msp.c ****   * @attention
   9:Core/Src/stm32l4xx_hal_msp.c ****   *
  10:Core/Src/stm32l4xx_hal_msp.c ****   * Copyright (c) 2022 STMicroelectronics.
  11:Core/Src/stm32l4xx_hal_msp.c ****   * All rights reserved.
  12:Core/Src/stm32l4xx_hal_msp.c ****   *
  13:Core/Src/stm32l4xx_hal_msp.c ****   * This software is licensed under terms that can be found in the LICENSE file
  14:Core/Src/stm32l4xx_hal_msp.c ****   * in the root directory of this software component.
  15:Core/Src/stm32l4xx_hal_msp.c ****   * If no LICENSE file comes with this software, it is provided AS-IS.
  16:Core/Src/stm32l4xx_hal_msp.c ****   *
  17:Core/Src/stm32l4xx_hal_msp.c ****   ******************************************************************************
  18:Core/Src/stm32l4xx_hal_msp.c ****   */
  19:Core/Src/stm32l4xx_hal_msp.c **** /* USER CODE END Header */
  20:Core/Src/stm32l4xx_hal_msp.c **** 
  21:Core/Src/stm32l4xx_hal_msp.c **** /* Includes ------------------------------------------------------------------*/
  22:Core/Src/stm32l4xx_hal_msp.c **** #include "main.h"
  23:Core/Src/stm32l4xx_hal_msp.c **** /* USER CODE BEGIN Includes */
  24:Core/Src/stm32l4xx_hal_msp.c **** 
  25:Core/Src/stm32l4xx_hal_msp.c **** /* USER CODE END Includes */
  26:Core/Src/stm32l4xx_hal_msp.c **** 
  27:Core/Src/stm32l4xx_hal_msp.c **** /* Private typedef -----------------------------------------------------------*/
  28:Core/Src/stm32l4xx_hal_msp.c **** /* USER CODE BEGIN TD */
  29:Core/Src/stm32l4xx_hal_msp.c **** 
ARM GAS  /tmp/cc8CfkBM.s 			page 2


  30:Core/Src/stm32l4xx_hal_msp.c **** /* USER CODE END TD */
  31:Core/Src/stm32l4xx_hal_msp.c **** 
  32:Core/Src/stm32l4xx_hal_msp.c **** /* Private define ------------------------------------------------------------*/
  33:Core/Src/stm32l4xx_hal_msp.c **** /* USER CODE BEGIN Define */
  34:Core/Src/stm32l4xx_hal_msp.c **** 
  35:Core/Src/stm32l4xx_hal_msp.c **** /* USER CODE END Define */
  36:Core/Src/stm32l4xx_hal_msp.c **** 
  37:Core/Src/stm32l4xx_hal_msp.c **** /* Private macro -------------------------------------------------------------*/
  38:Core/Src/stm32l4xx_hal_msp.c **** /* USER CODE BEGIN Macro */
  39:Core/Src/stm32l4xx_hal_msp.c **** 
  40:Core/Src/stm32l4xx_hal_msp.c **** /* USER CODE END Macro */
  41:Core/Src/stm32l4xx_hal_msp.c **** 
  42:Core/Src/stm32l4xx_hal_msp.c **** /* Private variables ---------------------------------------------------------*/
  43:Core/Src/stm32l4xx_hal_msp.c **** /* USER CODE BEGIN PV */
  44:Core/Src/stm32l4xx_hal_msp.c **** 
  45:Core/Src/stm32l4xx_hal_msp.c **** /* USER CODE END PV */
  46:Core/Src/stm32l4xx_hal_msp.c **** 
  47:Core/Src/stm32l4xx_hal_msp.c **** /* Private function prototypes -----------------------------------------------*/
  48:Core/Src/stm32l4xx_hal_msp.c **** /* USER CODE BEGIN PFP */
  49:Core/Src/stm32l4xx_hal_msp.c **** 
  50:Core/Src/stm32l4xx_hal_msp.c **** /* USER CODE END PFP */
  51:Core/Src/stm32l4xx_hal_msp.c **** 
  52:Core/Src/stm32l4xx_hal_msp.c **** /* External functions --------------------------------------------------------*/
  53:Core/Src/stm32l4xx_hal_msp.c **** /* USER CODE BEGIN ExternalFunctions */
  54:Core/Src/stm32l4xx_hal_msp.c **** 
  55:Core/Src/stm32l4xx_hal_msp.c **** /* USER CODE END ExternalFunctions */
  56:Core/Src/stm32l4xx_hal_msp.c **** 
  57:Core/Src/stm32l4xx_hal_msp.c **** /* USER CODE BEGIN 0 */
  58:Core/Src/stm32l4xx_hal_msp.c **** 
  59:Core/Src/stm32l4xx_hal_msp.c **** /* USER CODE END 0 */
  60:Core/Src/stm32l4xx_hal_msp.c **** /**
  61:Core/Src/stm32l4xx_hal_msp.c ****   * Initializes the Global MSP.
  62:Core/Src/stm32l4xx_hal_msp.c ****   */
  63:Core/Src/stm32l4xx_hal_msp.c **** void HAL_MspInit(void)
  64:Core/Src/stm32l4xx_hal_msp.c **** {
  30              		.loc 1 64 0
  31              		.cfi_startproc
  32              		@ args = 0, pretend = 0, frame = 8
  33              		@ frame_needed = 0, uses_anonymous_args = 0
  34              		@ link register save eliminated.
  35 0000 82B0     		sub	sp, sp, #8
  36              	.LCFI0:
  37              		.cfi_def_cfa_offset 8
  38              	.LBB2:
  65:Core/Src/stm32l4xx_hal_msp.c ****   /* USER CODE BEGIN MspInit 0 */
  66:Core/Src/stm32l4xx_hal_msp.c **** 
  67:Core/Src/stm32l4xx_hal_msp.c ****   /* USER CODE END MspInit 0 */
  68:Core/Src/stm32l4xx_hal_msp.c **** 
  69:Core/Src/stm32l4xx_hal_msp.c ****   __HAL_RCC_SYSCFG_CLK_ENABLE();
  39              		.loc 1 69 0
  40 0002 0A4B     		ldr	r3, .L3
  41 0004 1A6E     		ldr	r2, [r3, #96]
  42 0006 42F00102 		orr	r2, r2, #1
  43 000a 1A66     		str	r2, [r3, #96]
  44 000c 1A6E     		ldr	r2, [r3, #96]
  45 000e 02F00102 		and	r2, r2, #1
  46 0012 0092     		str	r2, [sp]
ARM GAS  /tmp/cc8CfkBM.s 			page 3


  47 0014 009A     		ldr	r2, [sp]
  48              	.LBE2:
  49              	.LBB3:
  70:Core/Src/stm32l4xx_hal_msp.c ****   __HAL_RCC_PWR_CLK_ENABLE();
  50              		.loc 1 70 0
  51 0016 9A6D     		ldr	r2, [r3, #88]
  52 0018 42F08052 		orr	r2, r2, #268435456
  53 001c 9A65     		str	r2, [r3, #88]
  54 001e 9B6D     		ldr	r3, [r3, #88]
  55 0020 03F08053 		and	r3, r3, #268435456
  56 0024 0193     		str	r3, [sp, #4]
  57 0026 019B     		ldr	r3, [sp, #4]
  58              	.LBE3:
  71:Core/Src/stm32l4xx_hal_msp.c **** 
  72:Core/Src/stm32l4xx_hal_msp.c ****   /* System interrupt init*/
  73:Core/Src/stm32l4xx_hal_msp.c **** 
  74:Core/Src/stm32l4xx_hal_msp.c ****   /* USER CODE BEGIN MspInit 1 */
  75:Core/Src/stm32l4xx_hal_msp.c **** 
  76:Core/Src/stm32l4xx_hal_msp.c ****   /* USER CODE END MspInit 1 */
  77:Core/Src/stm32l4xx_hal_msp.c **** }
  59              		.loc 1 77 0
  60 0028 02B0     		add	sp, sp, #8
  61              	.LCFI1:
  62              		.cfi_def_cfa_offset 0
  63              		@ sp needed
  64 002a 7047     		bx	lr
  65              	.L4:
  66              		.align	2
  67              	.L3:
  68 002c 00100240 		.word	1073876992
  69              		.cfi_endproc
  70              	.LFE132:
  72              		.section	.text.HAL_I2C_MspInit,"ax",%progbits
  73              		.align	2
  74              		.global	HAL_I2C_MspInit
  75              		.thumb
  76              		.thumb_func
  78              	HAL_I2C_MspInit:
  79              	.LFB133:
  78:Core/Src/stm32l4xx_hal_msp.c **** 
  79:Core/Src/stm32l4xx_hal_msp.c **** /**
  80:Core/Src/stm32l4xx_hal_msp.c **** * @brief I2C MSP Initialization
  81:Core/Src/stm32l4xx_hal_msp.c **** * This function configures the hardware resources used in this example
  82:Core/Src/stm32l4xx_hal_msp.c **** * @param hi2c: I2C handle pointer
  83:Core/Src/stm32l4xx_hal_msp.c **** * @retval None
  84:Core/Src/stm32l4xx_hal_msp.c **** */
  85:Core/Src/stm32l4xx_hal_msp.c **** void HAL_I2C_MspInit(I2C_HandleTypeDef* hi2c)
  86:Core/Src/stm32l4xx_hal_msp.c **** {
  80              		.loc 1 86 0
  81              		.cfi_startproc
  82              		@ args = 0, pretend = 0, frame = 120
  83              		@ frame_needed = 0, uses_anonymous_args = 0
  84              	.LVL0:
  85 0000 10B5     		push	{r4, lr}
  86              	.LCFI2:
  87              		.cfi_def_cfa_offset 8
  88              		.cfi_offset 4, -8
ARM GAS  /tmp/cc8CfkBM.s 			page 4


  89              		.cfi_offset 14, -4
  90 0002 9EB0     		sub	sp, sp, #120
  91              	.LCFI3:
  92              		.cfi_def_cfa_offset 128
  93 0004 0446     		mov	r4, r0
  87:Core/Src/stm32l4xx_hal_msp.c ****   GPIO_InitTypeDef GPIO_InitStruct = {0};
  94              		.loc 1 87 0
  95 0006 0021     		movs	r1, #0
  96 0008 1991     		str	r1, [sp, #100]
  97 000a 1A91     		str	r1, [sp, #104]
  98 000c 1B91     		str	r1, [sp, #108]
  99 000e 1C91     		str	r1, [sp, #112]
 100 0010 1D91     		str	r1, [sp, #116]
  88:Core/Src/stm32l4xx_hal_msp.c ****   RCC_PeriphCLKInitTypeDef PeriphClkInit = {0};
 101              		.loc 1 88 0
 102 0012 5C22     		movs	r2, #92
 103 0014 02A8     		add	r0, sp, #8
 104              	.LVL1:
 105 0016 FFF7FEFF 		bl	memset
 106              	.LVL2:
  89:Core/Src/stm32l4xx_hal_msp.c ****   if(hi2c->Instance==I2C1)
 107              		.loc 1 89 0
 108 001a 2268     		ldr	r2, [r4]
 109 001c 174B     		ldr	r3, .L9
 110 001e 9A42     		cmp	r2, r3
 111 0020 2AD1     		bne	.L5
  90:Core/Src/stm32l4xx_hal_msp.c ****   {
  91:Core/Src/stm32l4xx_hal_msp.c ****   /* USER CODE BEGIN I2C1_MspInit 0 */
  92:Core/Src/stm32l4xx_hal_msp.c **** 
  93:Core/Src/stm32l4xx_hal_msp.c ****   /* USER CODE END I2C1_MspInit 0 */
  94:Core/Src/stm32l4xx_hal_msp.c **** 
  95:Core/Src/stm32l4xx_hal_msp.c ****   /** Initializes the peripherals clock
  96:Core/Src/stm32l4xx_hal_msp.c ****   */
  97:Core/Src/stm32l4xx_hal_msp.c ****     PeriphClkInit.PeriphClockSelection = RCC_PERIPHCLK_I2C1;
 112              		.loc 1 97 0
 113 0022 1EA8     		add	r0, sp, #120
 114 0024 4023     		movs	r3, #64
 115 0026 40F8703D 		str	r3, [r0, #-112]!
  98:Core/Src/stm32l4xx_hal_msp.c ****     PeriphClkInit.I2c1ClockSelection = RCC_I2C1CLKSOURCE_PCLK1;
  99:Core/Src/stm32l4xx_hal_msp.c ****     if (HAL_RCCEx_PeriphCLKConfig(&PeriphClkInit) != HAL_OK)
 116              		.loc 1 99 0
 117 002a FFF7FEFF 		bl	HAL_RCCEx_PeriphCLKConfig
 118              	.LVL3:
 119 002e 08B1     		cbz	r0, .L7
 100:Core/Src/stm32l4xx_hal_msp.c ****     {
 101:Core/Src/stm32l4xx_hal_msp.c ****       Error_Handler();
 120              		.loc 1 101 0
 121 0030 FFF7FEFF 		bl	Error_Handler
 122              	.LVL4:
 123              	.L7:
 124              	.LBB4:
 102:Core/Src/stm32l4xx_hal_msp.c ****     }
 103:Core/Src/stm32l4xx_hal_msp.c **** 
 104:Core/Src/stm32l4xx_hal_msp.c ****     __HAL_RCC_GPIOB_CLK_ENABLE();
 125              		.loc 1 104 0
 126 0034 124C     		ldr	r4, .L9+4
 127              	.LVL5:
ARM GAS  /tmp/cc8CfkBM.s 			page 5


 128 0036 E36C     		ldr	r3, [r4, #76]
 129 0038 43F00203 		orr	r3, r3, #2
 130 003c E364     		str	r3, [r4, #76]
 131 003e E36C     		ldr	r3, [r4, #76]
 132 0040 03F00203 		and	r3, r3, #2
 133 0044 0093     		str	r3, [sp]
 134 0046 009B     		ldr	r3, [sp]
 135              	.LBE4:
 105:Core/Src/stm32l4xx_hal_msp.c ****     /**I2C1 GPIO Configuration
 106:Core/Src/stm32l4xx_hal_msp.c ****     PB8     ------> I2C1_SCL
 107:Core/Src/stm32l4xx_hal_msp.c ****     PB9     ------> I2C1_SDA
 108:Core/Src/stm32l4xx_hal_msp.c ****     */
 109:Core/Src/stm32l4xx_hal_msp.c ****     GPIO_InitStruct.Pin = GPIO_PIN_8|GPIO_PIN_9;
 136              		.loc 1 109 0
 137 0048 4FF44073 		mov	r3, #768
 138 004c 1993     		str	r3, [sp, #100]
 110:Core/Src/stm32l4xx_hal_msp.c ****     GPIO_InitStruct.Mode = GPIO_MODE_AF_OD;
 139              		.loc 1 110 0
 140 004e 1223     		movs	r3, #18
 141 0050 1A93     		str	r3, [sp, #104]
 111:Core/Src/stm32l4xx_hal_msp.c ****     GPIO_InitStruct.Pull = GPIO_NOPULL;
 142              		.loc 1 111 0
 143 0052 0023     		movs	r3, #0
 144 0054 1B93     		str	r3, [sp, #108]
 112:Core/Src/stm32l4xx_hal_msp.c ****     GPIO_InitStruct.Speed = GPIO_SPEED_FREQ_VERY_HIGH;
 145              		.loc 1 112 0
 146 0056 0323     		movs	r3, #3
 147 0058 1C93     		str	r3, [sp, #112]
 113:Core/Src/stm32l4xx_hal_msp.c ****     GPIO_InitStruct.Alternate = GPIO_AF4_I2C1;
 148              		.loc 1 113 0
 149 005a 0423     		movs	r3, #4
 150 005c 1D93     		str	r3, [sp, #116]
 114:Core/Src/stm32l4xx_hal_msp.c ****     HAL_GPIO_Init(GPIOB, &GPIO_InitStruct);
 151              		.loc 1 114 0
 152 005e 19A9     		add	r1, sp, #100
 153 0060 0848     		ldr	r0, .L9+8
 154 0062 FFF7FEFF 		bl	HAL_GPIO_Init
 155              	.LVL6:
 156              	.LBB5:
 115:Core/Src/stm32l4xx_hal_msp.c **** 
 116:Core/Src/stm32l4xx_hal_msp.c ****     /* Peripheral clock enable */
 117:Core/Src/stm32l4xx_hal_msp.c ****     __HAL_RCC_I2C1_CLK_ENABLE();
 157              		.loc 1 117 0
 158 0066 A36D     		ldr	r3, [r4, #88]
 159 0068 43F40013 		orr	r3, r3, #2097152
 160 006c A365     		str	r3, [r4, #88]
 161 006e A36D     		ldr	r3, [r4, #88]
 162 0070 03F40013 		and	r3, r3, #2097152
 163 0074 0193     		str	r3, [sp, #4]
 164 0076 019B     		ldr	r3, [sp, #4]
 165              	.L5:
 166              	.LBE5:
 118:Core/Src/stm32l4xx_hal_msp.c ****   /* USER CODE BEGIN I2C1_MspInit 1 */
 119:Core/Src/stm32l4xx_hal_msp.c **** 
 120:Core/Src/stm32l4xx_hal_msp.c ****   /* USER CODE END I2C1_MspInit 1 */
 121:Core/Src/stm32l4xx_hal_msp.c ****   }
 122:Core/Src/stm32l4xx_hal_msp.c **** 
ARM GAS  /tmp/cc8CfkBM.s 			page 6


 123:Core/Src/stm32l4xx_hal_msp.c **** }
 167              		.loc 1 123 0
 168 0078 1EB0     		add	sp, sp, #120
 169              	.LCFI4:
 170              		.cfi_def_cfa_offset 8
 171              		@ sp needed
 172 007a 10BD     		pop	{r4, pc}
 173              	.L10:
 174              		.align	2
 175              	.L9:
 176 007c 00540040 		.word	1073763328
 177 0080 00100240 		.word	1073876992
 178 0084 00040048 		.word	1207960576
 179              		.cfi_endproc
 180              	.LFE133:
 182              		.section	.text.HAL_I2C_MspDeInit,"ax",%progbits
 183              		.align	2
 184              		.global	HAL_I2C_MspDeInit
 185              		.thumb
 186              		.thumb_func
 188              	HAL_I2C_MspDeInit:
 189              	.LFB134:
 124:Core/Src/stm32l4xx_hal_msp.c **** 
 125:Core/Src/stm32l4xx_hal_msp.c **** /**
 126:Core/Src/stm32l4xx_hal_msp.c **** * @brief I2C MSP De-Initialization
 127:Core/Src/stm32l4xx_hal_msp.c **** * This function freeze the hardware resources used in this example
 128:Core/Src/stm32l4xx_hal_msp.c **** * @param hi2c: I2C handle pointer
 129:Core/Src/stm32l4xx_hal_msp.c **** * @retval None
 130:Core/Src/stm32l4xx_hal_msp.c **** */
 131:Core/Src/stm32l4xx_hal_msp.c **** void HAL_I2C_MspDeInit(I2C_HandleTypeDef* hi2c)
 132:Core/Src/stm32l4xx_hal_msp.c **** {
 190              		.loc 1 132 0
 191              		.cfi_startproc
 192              		@ args = 0, pretend = 0, frame = 0
 193              		@ frame_needed = 0, uses_anonymous_args = 0
 194              	.LVL7:
 133:Core/Src/stm32l4xx_hal_msp.c ****   if(hi2c->Instance==I2C1)
 195              		.loc 1 133 0
 196 0000 0268     		ldr	r2, [r0]
 197 0002 0B4B     		ldr	r3, .L15
 198 0004 9A42     		cmp	r2, r3
 199 0006 11D1     		bne	.L14
 132:Core/Src/stm32l4xx_hal_msp.c ****   if(hi2c->Instance==I2C1)
 200              		.loc 1 132 0
 201 0008 10B5     		push	{r4, lr}
 202              	.LCFI5:
 203              		.cfi_def_cfa_offset 8
 204              		.cfi_offset 4, -8
 205              		.cfi_offset 14, -4
 134:Core/Src/stm32l4xx_hal_msp.c ****   {
 135:Core/Src/stm32l4xx_hal_msp.c ****   /* USER CODE BEGIN I2C1_MspDeInit 0 */
 136:Core/Src/stm32l4xx_hal_msp.c **** 
 137:Core/Src/stm32l4xx_hal_msp.c ****   /* USER CODE END I2C1_MspDeInit 0 */
 138:Core/Src/stm32l4xx_hal_msp.c ****     /* Peripheral clock disable */
 139:Core/Src/stm32l4xx_hal_msp.c ****     __HAL_RCC_I2C1_CLK_DISABLE();
 206              		.loc 1 139 0
 207 000a 0A4A     		ldr	r2, .L15+4
ARM GAS  /tmp/cc8CfkBM.s 			page 7


 208 000c 936D     		ldr	r3, [r2, #88]
 209 000e 23F40013 		bic	r3, r3, #2097152
 210 0012 9365     		str	r3, [r2, #88]
 140:Core/Src/stm32l4xx_hal_msp.c **** 
 141:Core/Src/stm32l4xx_hal_msp.c ****     /**I2C1 GPIO Configuration
 142:Core/Src/stm32l4xx_hal_msp.c ****     PB8     ------> I2C1_SCL
 143:Core/Src/stm32l4xx_hal_msp.c ****     PB9     ------> I2C1_SDA
 144:Core/Src/stm32l4xx_hal_msp.c ****     */
 145:Core/Src/stm32l4xx_hal_msp.c ****     HAL_GPIO_DeInit(GPIOB, GPIO_PIN_8);
 211              		.loc 1 145 0
 212 0014 084C     		ldr	r4, .L15+8
 213 0016 4FF48071 		mov	r1, #256
 214 001a 2046     		mov	r0, r4
 215              	.LVL8:
 216 001c FFF7FEFF 		bl	HAL_GPIO_DeInit
 217              	.LVL9:
 146:Core/Src/stm32l4xx_hal_msp.c **** 
 147:Core/Src/stm32l4xx_hal_msp.c ****     HAL_GPIO_DeInit(GPIOB, GPIO_PIN_9);
 218              		.loc 1 147 0
 219 0020 4FF40071 		mov	r1, #512
 220 0024 2046     		mov	r0, r4
 221 0026 FFF7FEFF 		bl	HAL_GPIO_DeInit
 222              	.LVL10:
 223 002a 10BD     		pop	{r4, pc}
 224              	.LVL11:
 225              	.L14:
 226              	.LCFI6:
 227              		.cfi_def_cfa_offset 0
 228              		.cfi_restore 4
 229              		.cfi_restore 14
 230 002c 7047     		bx	lr
 231              	.L16:
 232 002e 00BF     		.align	2
 233              	.L15:
 234 0030 00540040 		.word	1073763328
 235 0034 00100240 		.word	1073876992
 236 0038 00040048 		.word	1207960576
 237              		.cfi_endproc
 238              	.LFE134:
 240              		.section	.text.HAL_UART_MspInit,"ax",%progbits
 241              		.align	2
 242              		.global	HAL_UART_MspInit
 243              		.thumb
 244              		.thumb_func
 246              	HAL_UART_MspInit:
 247              	.LFB135:
 148:Core/Src/stm32l4xx_hal_msp.c **** 
 149:Core/Src/stm32l4xx_hal_msp.c ****   /* USER CODE BEGIN I2C1_MspDeInit 1 */
 150:Core/Src/stm32l4xx_hal_msp.c **** 
 151:Core/Src/stm32l4xx_hal_msp.c ****   /* USER CODE END I2C1_MspDeInit 1 */
 152:Core/Src/stm32l4xx_hal_msp.c ****   }
 153:Core/Src/stm32l4xx_hal_msp.c **** 
 154:Core/Src/stm32l4xx_hal_msp.c **** }
 155:Core/Src/stm32l4xx_hal_msp.c **** 
 156:Core/Src/stm32l4xx_hal_msp.c **** /**
 157:Core/Src/stm32l4xx_hal_msp.c **** * @brief UART MSP Initialization
 158:Core/Src/stm32l4xx_hal_msp.c **** * This function configures the hardware resources used in this example
ARM GAS  /tmp/cc8CfkBM.s 			page 8


 159:Core/Src/stm32l4xx_hal_msp.c **** * @param huart: UART handle pointer
 160:Core/Src/stm32l4xx_hal_msp.c **** * @retval None
 161:Core/Src/stm32l4xx_hal_msp.c **** */
 162:Core/Src/stm32l4xx_hal_msp.c **** void HAL_UART_MspInit(UART_HandleTypeDef* huart)
 163:Core/Src/stm32l4xx_hal_msp.c **** {
 248              		.loc 1 163 0
 249              		.cfi_startproc
 250              		@ args = 0, pretend = 0, frame = 120
 251              		@ frame_needed = 0, uses_anonymous_args = 0
 252              	.LVL12:
 253 0000 10B5     		push	{r4, lr}
 254              	.LCFI7:
 255              		.cfi_def_cfa_offset 8
 256              		.cfi_offset 4, -8
 257              		.cfi_offset 14, -4
 258 0002 9EB0     		sub	sp, sp, #120
 259              	.LCFI8:
 260              		.cfi_def_cfa_offset 128
 261 0004 0446     		mov	r4, r0
 164:Core/Src/stm32l4xx_hal_msp.c ****   GPIO_InitTypeDef GPIO_InitStruct = {0};
 262              		.loc 1 164 0
 263 0006 0021     		movs	r1, #0
 264 0008 1991     		str	r1, [sp, #100]
 265 000a 1A91     		str	r1, [sp, #104]
 266 000c 1B91     		str	r1, [sp, #108]
 267 000e 1C91     		str	r1, [sp, #112]
 268 0010 1D91     		str	r1, [sp, #116]
 165:Core/Src/stm32l4xx_hal_msp.c ****   RCC_PeriphCLKInitTypeDef PeriphClkInit = {0};
 269              		.loc 1 165 0
 270 0012 5C22     		movs	r2, #92
 271 0014 02A8     		add	r0, sp, #8
 272              	.LVL13:
 273 0016 FFF7FEFF 		bl	memset
 274              	.LVL14:
 166:Core/Src/stm32l4xx_hal_msp.c ****   if(huart->Instance==USART1)
 275              		.loc 1 166 0
 276 001a 2268     		ldr	r2, [r4]
 277 001c 184B     		ldr	r3, .L21
 278 001e 9A42     		cmp	r2, r3
 279 0020 2BD1     		bne	.L17
 167:Core/Src/stm32l4xx_hal_msp.c ****   {
 168:Core/Src/stm32l4xx_hal_msp.c ****   /* USER CODE BEGIN USART1_MspInit 0 */
 169:Core/Src/stm32l4xx_hal_msp.c **** 
 170:Core/Src/stm32l4xx_hal_msp.c ****   /* USER CODE END USART1_MspInit 0 */
 171:Core/Src/stm32l4xx_hal_msp.c **** 
 172:Core/Src/stm32l4xx_hal_msp.c ****   /** Initializes the peripherals clock
 173:Core/Src/stm32l4xx_hal_msp.c ****   */
 174:Core/Src/stm32l4xx_hal_msp.c ****     PeriphClkInit.PeriphClockSelection = RCC_PERIPHCLK_USART1;
 280              		.loc 1 174 0
 281 0022 1EA8     		add	r0, sp, #120
 282 0024 0123     		movs	r3, #1
 283 0026 40F8703D 		str	r3, [r0, #-112]!
 175:Core/Src/stm32l4xx_hal_msp.c ****     PeriphClkInit.Usart1ClockSelection = RCC_USART1CLKSOURCE_PCLK2;
 176:Core/Src/stm32l4xx_hal_msp.c ****     if (HAL_RCCEx_PeriphCLKConfig(&PeriphClkInit) != HAL_OK)
 284              		.loc 1 176 0
 285 002a FFF7FEFF 		bl	HAL_RCCEx_PeriphCLKConfig
 286              	.LVL15:
ARM GAS  /tmp/cc8CfkBM.s 			page 9


 287 002e 08B1     		cbz	r0, .L19
 177:Core/Src/stm32l4xx_hal_msp.c ****     {
 178:Core/Src/stm32l4xx_hal_msp.c ****       Error_Handler();
 288              		.loc 1 178 0
 289 0030 FFF7FEFF 		bl	Error_Handler
 290              	.LVL16:
 291              	.L19:
 292              	.LBB6:
 179:Core/Src/stm32l4xx_hal_msp.c ****     }
 180:Core/Src/stm32l4xx_hal_msp.c **** 
 181:Core/Src/stm32l4xx_hal_msp.c ****     /* Peripheral clock enable */
 182:Core/Src/stm32l4xx_hal_msp.c ****     __HAL_RCC_USART1_CLK_ENABLE();
 293              		.loc 1 182 0
 294 0034 134B     		ldr	r3, .L21+4
 295 0036 1A6E     		ldr	r2, [r3, #96]
 296 0038 42F48042 		orr	r2, r2, #16384
 297 003c 1A66     		str	r2, [r3, #96]
 298 003e 1A6E     		ldr	r2, [r3, #96]
 299 0040 02F48042 		and	r2, r2, #16384
 300 0044 0092     		str	r2, [sp]
 301 0046 009A     		ldr	r2, [sp]
 302              	.LBE6:
 303              	.LBB7:
 183:Core/Src/stm32l4xx_hal_msp.c **** 
 184:Core/Src/stm32l4xx_hal_msp.c ****     __HAL_RCC_GPIOA_CLK_ENABLE();
 304              		.loc 1 184 0
 305 0048 DA6C     		ldr	r2, [r3, #76]
 306 004a 42F00102 		orr	r2, r2, #1
 307 004e DA64     		str	r2, [r3, #76]
 308 0050 DB6C     		ldr	r3, [r3, #76]
 309 0052 03F00103 		and	r3, r3, #1
 310 0056 0193     		str	r3, [sp, #4]
 311 0058 019B     		ldr	r3, [sp, #4]
 312              	.LBE7:
 185:Core/Src/stm32l4xx_hal_msp.c ****     /**USART1 GPIO Configuration
 186:Core/Src/stm32l4xx_hal_msp.c ****     PA9     ------> USART1_TX
 187:Core/Src/stm32l4xx_hal_msp.c ****     PA10     ------> USART1_RX
 188:Core/Src/stm32l4xx_hal_msp.c ****     */
 189:Core/Src/stm32l4xx_hal_msp.c ****     GPIO_InitStruct.Pin = GPIO_PIN_9|GPIO_PIN_10;
 313              		.loc 1 189 0
 314 005a 4FF4C063 		mov	r3, #1536
 315 005e 1993     		str	r3, [sp, #100]
 190:Core/Src/stm32l4xx_hal_msp.c ****     GPIO_InitStruct.Mode = GPIO_MODE_AF_PP;
 316              		.loc 1 190 0
 317 0060 0223     		movs	r3, #2
 318 0062 1A93     		str	r3, [sp, #104]
 191:Core/Src/stm32l4xx_hal_msp.c ****     GPIO_InitStruct.Pull = GPIO_NOPULL;
 319              		.loc 1 191 0
 320 0064 0023     		movs	r3, #0
 321 0066 1B93     		str	r3, [sp, #108]
 192:Core/Src/stm32l4xx_hal_msp.c ****     GPIO_InitStruct.Speed = GPIO_SPEED_FREQ_VERY_HIGH;
 322              		.loc 1 192 0
 323 0068 0323     		movs	r3, #3
 324 006a 1C93     		str	r3, [sp, #112]
 193:Core/Src/stm32l4xx_hal_msp.c ****     GPIO_InitStruct.Alternate = GPIO_AF7_USART1;
 325              		.loc 1 193 0
 326 006c 0723     		movs	r3, #7
ARM GAS  /tmp/cc8CfkBM.s 			page 10


 327 006e 1D93     		str	r3, [sp, #116]
 194:Core/Src/stm32l4xx_hal_msp.c ****     HAL_GPIO_Init(GPIOA, &GPIO_InitStruct);
 328              		.loc 1 194 0
 329 0070 19A9     		add	r1, sp, #100
 330 0072 4FF09040 		mov	r0, #1207959552
 331 0076 FFF7FEFF 		bl	HAL_GPIO_Init
 332              	.LVL17:
 333              	.L17:
 195:Core/Src/stm32l4xx_hal_msp.c **** 
 196:Core/Src/stm32l4xx_hal_msp.c ****   /* USER CODE BEGIN USART1_MspInit 1 */
 197:Core/Src/stm32l4xx_hal_msp.c **** 
 198:Core/Src/stm32l4xx_hal_msp.c ****   /* USER CODE END USART1_MspInit 1 */
 199:Core/Src/stm32l4xx_hal_msp.c ****   }
 200:Core/Src/stm32l4xx_hal_msp.c **** 
 201:Core/Src/stm32l4xx_hal_msp.c **** }
 334              		.loc 1 201 0
 335 007a 1EB0     		add	sp, sp, #120
 336              	.LCFI9:
 337              		.cfi_def_cfa_offset 8
 338              		@ sp needed
 339 007c 10BD     		pop	{r4, pc}
 340              	.LVL18:
 341              	.L22:
 342 007e 00BF     		.align	2
 343              	.L21:
 344 0080 00380140 		.word	1073821696
 345 0084 00100240 		.word	1073876992
 346              		.cfi_endproc
 347              	.LFE135:
 349              		.section	.text.HAL_UART_MspDeInit,"ax",%progbits
 350              		.align	2
 351              		.global	HAL_UART_MspDeInit
 352              		.thumb
 353              		.thumb_func
 355              	HAL_UART_MspDeInit:
 356              	.LFB136:
 202:Core/Src/stm32l4xx_hal_msp.c **** 
 203:Core/Src/stm32l4xx_hal_msp.c **** /**
 204:Core/Src/stm32l4xx_hal_msp.c **** * @brief UART MSP De-Initialization
 205:Core/Src/stm32l4xx_hal_msp.c **** * This function freeze the hardware resources used in this example
 206:Core/Src/stm32l4xx_hal_msp.c **** * @param huart: UART handle pointer
 207:Core/Src/stm32l4xx_hal_msp.c **** * @retval None
 208:Core/Src/stm32l4xx_hal_msp.c **** */
 209:Core/Src/stm32l4xx_hal_msp.c **** void HAL_UART_MspDeInit(UART_HandleTypeDef* huart)
 210:Core/Src/stm32l4xx_hal_msp.c **** {
 357              		.loc 1 210 0
 358              		.cfi_startproc
 359              		@ args = 0, pretend = 0, frame = 0
 360              		@ frame_needed = 0, uses_anonymous_args = 0
 361              	.LVL19:
 362 0000 08B5     		push	{r3, lr}
 363              	.LCFI10:
 364              		.cfi_def_cfa_offset 8
 365              		.cfi_offset 3, -8
 366              		.cfi_offset 14, -4
 211:Core/Src/stm32l4xx_hal_msp.c ****   if(huart->Instance==USART1)
 367              		.loc 1 211 0
ARM GAS  /tmp/cc8CfkBM.s 			page 11


 368 0002 0268     		ldr	r2, [r0]
 369 0004 074B     		ldr	r3, .L26
 370 0006 9A42     		cmp	r2, r3
 371 0008 0AD1     		bne	.L23
 212:Core/Src/stm32l4xx_hal_msp.c ****   {
 213:Core/Src/stm32l4xx_hal_msp.c ****   /* USER CODE BEGIN USART1_MspDeInit 0 */
 214:Core/Src/stm32l4xx_hal_msp.c **** 
 215:Core/Src/stm32l4xx_hal_msp.c ****   /* USER CODE END USART1_MspDeInit 0 */
 216:Core/Src/stm32l4xx_hal_msp.c ****     /* Peripheral clock disable */
 217:Core/Src/stm32l4xx_hal_msp.c ****     __HAL_RCC_USART1_CLK_DISABLE();
 372              		.loc 1 217 0
 373 000a 074A     		ldr	r2, .L26+4
 374 000c 136E     		ldr	r3, [r2, #96]
 375 000e 23F48043 		bic	r3, r3, #16384
 376 0012 1366     		str	r3, [r2, #96]
 218:Core/Src/stm32l4xx_hal_msp.c **** 
 219:Core/Src/stm32l4xx_hal_msp.c ****     /**USART1 GPIO Configuration
 220:Core/Src/stm32l4xx_hal_msp.c ****     PA9     ------> USART1_TX
 221:Core/Src/stm32l4xx_hal_msp.c ****     PA10     ------> USART1_RX
 222:Core/Src/stm32l4xx_hal_msp.c ****     */
 223:Core/Src/stm32l4xx_hal_msp.c ****     HAL_GPIO_DeInit(GPIOA, GPIO_PIN_9|GPIO_PIN_10);
 377              		.loc 1 223 0
 378 0014 4FF4C061 		mov	r1, #1536
 379 0018 4FF09040 		mov	r0, #1207959552
 380              	.LVL20:
 381 001c FFF7FEFF 		bl	HAL_GPIO_DeInit
 382              	.LVL21:
 383              	.L23:
 384 0020 08BD     		pop	{r3, pc}
 385              	.L27:
 386 0022 00BF     		.align	2
 387              	.L26:
 388 0024 00380140 		.word	1073821696
 389 0028 00100240 		.word	1073876992
 390              		.cfi_endproc
 391              	.LFE136:
 393              		.text
 394              	.Letext0:
 395              		.file 2 "/home/yuan/gcc-arm-none-eabi-5_4-2016q3/arm-none-eabi/include/machine/_default_types.h"
 396              		.file 3 "/home/yuan/gcc-arm-none-eabi-5_4-2016q3/arm-none-eabi/include/sys/_stdint.h"
 397              		.file 4 "Drivers/CMSIS/Device/ST/STM32L4xx/Include/stm32l431xx.h"
 398              		.file 5 "Drivers/STM32L4xx_HAL_Driver/Inc/stm32l4xx_hal_def.h"
 399              		.file 6 "Drivers/STM32L4xx_HAL_Driver/Inc/stm32l4xx_hal_rcc_ex.h"
 400              		.file 7 "Drivers/STM32L4xx_HAL_Driver/Inc/stm32l4xx_hal_gpio.h"
 401              		.file 8 "Drivers/STM32L4xx_HAL_Driver/Inc/stm32l4xx_hal_dma.h"
 402              		.file 9 "Drivers/STM32L4xx_HAL_Driver/Inc/stm32l4xx_hal_i2c.h"
 403              		.file 10 "Drivers/STM32L4xx_HAL_Driver/Inc/stm32l4xx_hal_uart.h"
 404              		.file 11 "Drivers/CMSIS/Include/cmsis_gcc.h"
 405              		.file 12 "Drivers/CMSIS/Include/core_cm4.h"
 406              		.file 13 "Core/Inc/main.h"
ARM GAS  /tmp/cc8CfkBM.s 			page 12

